; Function Attrs: nounwind uwtable
define dso_local void @job_resv_clear_magnetic_flag(ptr noundef %0) local_unnamed_addr #0 {
  %2 = getelementptr inbounds nuw i8, ptr %0, i64 112
  %3 = load i64, ptr %2, align 8
  %4 = and i64 %3, 1073741824
  %.not = icmp eq i64 %4, 0
  br i1 %.not, label %15, label %5

5:                                                ; preds = %1
  %6 = getelementptr inbounds nuw i8, ptr %0, i64 448
  %7 = load i32, ptr %6, align 8
  %8 = and i32 %7, 1
  %.not6 = icmp eq i32 %8, 0
  br i1 %.not6, label %9, label %15

9:                                                ; preds = %5
  %10 = getelementptr inbounds nuw i8, ptr %0, i64 816
  tail call void @slurm_xfree(ptr noundef nonnull %10) #19
  %11 = getelementptr inbounds nuw i8, ptr %0, i64 800
  store i32 0, ptr %11, align 8
  %12 = getelementptr inbounds nuw i8, ptr %0, i64 824
  store ptr null, ptr %12, align 8
  %13 = load i64, ptr %2, align 8
  %14 = and i64 %13, -1073741825
  store i64 %14, ptr %2, align 8
  br label %15

15:                                               ; preds = %1, %5, %9
  ret void
}